; Function Attrs: null_pointer_is_valid sspstrong uwtable
define internal void @for_req_pilot_ph_meas(ptr noundef %0, ptr noundef %1, ptr noundef %2, i32 noundef %3, i32 noundef %4) #0 {
  %6 = icmp ult i32 %3, 3
  br i1 %6, label %7, label %9

7:                                                ; preds = %5
  %8 = tail call ptr @proto_tree_add_expert(ptr noundef %2, ptr noundef %1, ptr noundef nonnull @ei_ansi_801_short_data, ptr noundef %0, i32 noundef %4, i32 noundef %3)
  br label %26

9:                                                ; preds = %5
  %10 = load i32, ptr @hf_ansi_801_pref_resp_qual, align 4
  %11 = tail call ptr @proto_tree_add_item(ptr noundef %2, i32 noundef %10, ptr noundef %0, i32 noundef %4, i32 noundef 3, i32 noundef 0)
  %12 = load i32, ptr @hf_ansi_801_num_fixes, align 4
  %13 = tail call ptr @proto_tree_add_item(ptr noundef %2, i32 noundef %12, ptr noundef %0, i32 noundef %4, i32 noundef 3, i32 noundef 0)
  %14 = load i32, ptr @hf_ansi_801_t_betw_fixes, align 4
  %15 = tail call ptr @proto_tree_add_item(ptr noundef %2, i32 noundef %14, ptr noundef %0, i32 noundef %4, i32 noundef 3, i32 noundef 0)
  %16 = load i32, ptr @hf_ansi_801_offset_req, align 4
  %17 = tail call ptr @proto_tree_add_item(ptr noundef %2, i32 noundef %16, ptr noundef %0, i32 noundef %4, i32 noundef 3, i32 noundef 0)
  %18 = load i32, ptr @hf_ansi_801_desired_pilot_phase_resolution, align 4
  %19 = tail call ptr @proto_tree_add_item(ptr noundef %2, i32 noundef %18, ptr noundef %0, i32 noundef %4, i32 noundef 3, i32 noundef 0)
  %20 = load i32, ptr @hf_ansi_801_reserved_24_7, align 4
  %21 = tail call ptr @proto_tree_add_item(ptr noundef %2, i32 noundef %20, ptr noundef %0, i32 noundef %4, i32 noundef 3, i32 noundef 0)
  %.not = icmp eq i32 %3, 3
  br i1 %.not, label %26, label %22

22:                                               ; preds = %9
  %23 = add i32 %4, 3
  %24 = add i32 %3, -3
  %25 = tail call ptr @proto_tree_add_expert(ptr noundef %2, ptr noundef %1, ptr noundef nonnull @ei_ansi_801_extraneous_data, ptr noundef %0, i32 noundef %23, i32 noundef %24)
  br label %26

26:                                               ; preds = %9, %22, %7
  ret void
}